; Function Attrs: mustprogress nounwind uwtable
define internal fastcc noundef range(i32 0, 4) i32 @_ZL16DecodeMatrixTileILj2EEN4llvm14MCDisassembler12DecodeStatusERNS0_6MCInstEjmPKS1_(ptr noundef nonnull align 8 dereferenceable(128) %0, i32 noundef %1) unnamed_addr #0 {
  %3 = icmp ugt i32 %1, 3
  br i1 %3, label %19, label %4

4:                                                ; preds = %2
  %5 = zext nneg i32 %1 to i64
  %6 = getelementptr inbounds nuw [16 x i16], ptr getelementptr inbounds nuw (i8, ptr @_ZL24MatrixZATileDecoderTable, i64 64), i64 0, i64 %5
  %7 = load i16, ptr %6, align 2
  %.sroa.3.8.insert.ext.i = zext i16 %7 to i64
  %8 = getelementptr inbounds nuw i8, ptr %0, i64 16
  %9 = tail call noundef i64 @_ZNK4llvm15SmallVectorBaseIjE4sizeEv(ptr noundef nonnull align 8 dereferenceable(16) %8) #13
  %10 = add i64 %9, 1
  %11 = tail call noundef i64 @_ZNK4llvm15SmallVectorBaseIjE8capacityEv(ptr noundef nonnull align 8 dereferenceable(16) %8) #13
  %.not.i.i.i.i = icmp ugt i64 %10, %11
  br i1 %.not.i.i.i.i, label %12, label %_ZN4llvm6MCInst10addOperandENS_9MCOperandE.exit

12:                                               ; preds = %4
  %13 = getelementptr inbounds nuw i8, ptr %0, i64 32
  tail call void @_ZN4llvm15SmallVectorBaseIjE8grow_podEPvmm(ptr noundef nonnull align 8 dereferenceable(16) %8, ptr noundef nonnull %13, i64 noundef %10, i64 noundef 16) #13
  br label %_ZN4llvm6MCInst10addOperandENS_9MCOperandE.exit

_ZN4llvm6MCInst10addOperandENS_9MCOperandE.exit:  ; preds = %4, %12
  %14 = load ptr, ptr %8, align 8
  %15 = tail call noundef i64 @_ZNK4llvm15SmallVectorBaseIjE4sizeEv(ptr noundef nonnull align 8 dereferenceable(16) %8) #13
  %16 = getelementptr inbounds %"class.llvm::MCOperand", ptr %14, i64 %15
  store i8 1, ptr %16, align 1
  %.sroa.22.0..sroa_idx.i.i = getelementptr inbounds nuw i8, ptr %16, i64 8
  store i64 %.sroa.3.8.insert.ext.i, ptr %.sroa.22.0..sroa_idx.i.i, align 1
  %17 = tail call noundef i64 @_ZNK4llvm15SmallVectorBaseIjE4sizeEv(ptr noundef nonnull align 8 dereferenceable(16) %8) #13
  %18 = add i64 %17, 1
  tail call void @_ZN4llvm15SmallVectorBaseIjE8set_sizeEm(ptr noundef nonnull align 8 dereferenceable(16) %8, i64 noundef %18) #13
  br label %19

19:                                               ; preds = %2, %_ZN4llvm6MCInst10addOperandENS_9MCOperandE.exit
  %.0 = phi i32 [ 3, %_ZN4llvm6MCInst10addOperandENS_9MCOperandE.exit ], [ 0, %2 ]
  ret i32 %.0
}